
 Start         Length     Name                   Class
 0002:00000000 000001E12H .text                  CODE
 0003:00000000 000000F5EH .rdata                 DATA
 0004:00000000 000000534H .data                  DATA
 0005:00000000 0000006B6H .idata                 DATA


  Address         Publics by Value

 0001:0000000A       j__f
 0001:00000014       _main_0
 0001:00000019       j__f1
 0001:0000001E       j__f2
 0001:00000023       j__f3
 0001:00000040       _dump_FSAVE_info
 0001:000000F0       _f
 0001:000000FF       p1
 0001:00000110       _f1
 0001:00000120       _dump_STx
 0001:00000160       _f2
 0001:00000180       _f3
 0001:00000186       p3
 0001:000001A0       _main
 0001:000001C6       p2
 0001:000002D0       _printf
 0001:000002E0       @__security_check_cookie@4
 0001:000002EA       failure
 0001:000002F0       _fclose
 0001:000002F6       _fprintf
 0001:000002FC       _fopen
 0001:00000302       _NtCurrentTeb
 0001:00000309       pre_cpp_init
 0001:00000354       __tmainCRTStartup
 0001:0000048D       $LN36
 0001:000004A0       $LN32
 0001:000004A1       $LN22
 0001:000004BD       $LN37
 0001:000004DD       check_managed_app
 0001:00000524       pre_c_init
 0001:000005DE       _mainCRTStartup
 0001:000005E8       ___report_gsfailure
 0001:000006EE       ?__CxxUnhandledExceptionFilter@@YGJPAU_EXCEPTION_POINTERS@@@Z
 0001:0000072A       $LN6
 0001:00000730       ___CxxSetUnhandledExceptionFilter
 0001:0000073E       __amsg_exit
 0001:00000744       ___getmainargs
 0001:0000074A       __onexit
 0001:000007D9       $LN9
 0001:000007E2       $LN6_0
 0001:000007EA       $LN7
 0001:000007EB       _atexit
 0001:00000802       __RTC_Initialize
 0001:00000828       __RTC_Terminate
 0001:0000084E       __cexit
 0001:00000854       __exit
 0001:0000085A       __XcptFilter
 0001:00000860       _exit_0
 0001:00000870       __ValidateImageBase
 0001:000008B0       __FindPESection
 0001:00000900       __IsNonwritableInCurrentImage
 0001:0000098B       $LN7_0
 0001:0000099D       $LN11
 0001:0000099E       $LN8
 0001:000009BC       __initterm
 0001:000009C2       __initterm_e
 0001:000009D0       __SEH_prolog4
 0001:00000A15       __SEH_epilog4
 0001:00000A29       __except_handler4
 0001:00000A4E       __configthreadlocale
 0001:00000A54       __invoke_watson_if_error
 0001:00000A73       $LN5
 0001:00000A75       __setdefaultprecision
 0001:00000A9B       $LN8_0
 0001:00000A9D       $LN7_1
 0001:00000A9E       ___setusermatherr
 0001:00000AA4       __matherr
 0001:00000AA7       __setargv
 0001:00000AAA       ___set_app_type
 0001:00000AB0       ___security_init_cookie
 0001:00000B4C       __crt_debugger_hook
 0001:00000B52       ?terminate@@YAXXZ_0
 0001:00000B58       __unlock
 0001:00000B5E       ___dllonexit
 0001:00000B64       __lock
 0001:00000B6A       __except_handler4_common
 0001:00000B70       __invoke_watson
 0001:00000B76       __controlfp_s
 0001:00000B7C       _InterlockedExchange@8
 0001:00000B82       _Sleep@4
 0001:00000B88       _InterlockedCompareExchange@12
 0001:00000B8E       _HeapSetInformation@16
 0001:00000B94       _EncodePointer@4
 0001:00000B9A       _TerminateProcess@8
 0001:00000BA0       _GetCurrentProcess@0
 0001:00000BA6       _UnhandledExceptionFilter@4
 0001:00000BAC       _SetUnhandledExceptionFilter@4
 0001:00000BB2       _IsDebuggerPresent@0
 0001:00000BB8       _DecodePointer@4
 0001:00000BBE       _QueryPerformanceCounter@4
 0001:00000BC4       _GetTickCount@0
 0001:00000BCA       _GetCurrentThreadId@0
 0001:00000BD0       _GetCurrentProcessId@0
 0001:00000BD6       _GetSystemTimeAsFileTime@4
 0002:00000000       ___xc_a
 0002:00000104       pcppinit
 0002:00000208       ___xc_z
 0002:0000030C       ___xi_a
 0002:00000410       pcinit
 0002:00000514       pinit
 0002:00000618       ___xi_z
 0002:00000740       __real@4008000000000000
 0002:00000750       __real@4002c3f34c935689
 0002:00000760       __real@3ff3c0ca4283de1b
 0002:0000076C       GS_ExceptionPointers
 0002:00000774       ?ProcessDetach@NativeDll@_CrtImplementationDetails_@@0IB
 0002:00000778       ?ProcessAttach@NativeDll@_CrtImplementationDetails_@@0IB
 0002:0000077C       ?ThreadAttach@NativeDll@_CrtImplementationDetails_@@0IB
 0002:00000780       ?ThreadDetach@NativeDll@_CrtImplementationDetails_@@0IB
 0002:00000784       ?ProcessVerifier@NativeDll@_CrtImplementationDetails_@@0IB
 0002:000009DC       ___rtc_iaa
 0002:00000AE0       ___rtc_izz
 0002:00000BE4       ___rtc_taa
 0002:00000CE8       ___rtc_tzz
 0003:00000000       Format
 0003:00000008       aF3
 0003:0000000C       aSS
 0003:00000018       _to_be_dumped
 0003:00000028       Mode
 0003:0000002C       Filename
 0003:00000034       aDD
 0003:0000003C       in
 0003:00000090       ___security_cookie
 0003:00000094       ___security_cookie_complement
 0003:00000098       ___native_dllmain_reason
 0003:0000009C       ___native_vcclrit_reason
 0003:000000A0       ___globallocalestatus
 0003:000000A4       ___defaultmatherr
 0003:000001B0       argc
 0003:000001B4       envp
 0003:000001B8       argv
 0003:000001BC       managedapp
 0003:000001C0       argret
 0003:000001C4       startinfo
 0003:000001C8       mainret
 0003:000001CC       has_cctor
 0003:000001D0       GS_ExceptionRecord
 0003:00000220       DebuggerWasPresent
 0003:00000228       GS_ContextRecord
 0003:000004F4       __dowildcard
 0003:000004F8       __newmode
 0003:000004FC       __commode
 0003:00000500       __fmode
 0003:00000504       ___native_startup_state
 0003:00000514       ___native_startup_lock
 0003:00000518       ___onexitend
 0003:00000528       ___onexitbegin
 0003:0000052C       __NoHeapEnableTerminationOnCorruption
 0003:00000530       ___dyn_tls_init_callback

Program entry point at 0001:000005DE
